ARM GAS  C:\Users\MSI-NB\AppData\Local\Temp\cckFucAn.s 			page 1


   1              		.cpu cortex-m4
   2              		.eabi_attribute 27, 1
   3              		.eabi_attribute 28, 1
   4              		.eabi_attribute 20, 1
   5              		.eabi_attribute 21, 1
   6              		.eabi_attribute 23, 3
   7              		.eabi_attribute 24, 1
   8              		.eabi_attribute 25, 1
   9              		.eabi_attribute 26, 1
  10              		.eabi_attribute 30, 1
  11              		.eabi_attribute 34, 1
  12              		.eabi_attribute 18, 4
  13              		.file	"main.c"
  14              		.text
  15              	.Ltext0:
  16              		.cfi_sections	.debug_frame
  17              		.section	.text.SystemClock_Config,"ax",%progbits
  18              		.align	1
  19              		.global	SystemClock_Config
  20              		.arch armv7e-m
  21              		.syntax unified
  22              		.thumb
  23              		.thumb_func
  24              		.fpu fpv4-sp-d16
  26              	SystemClock_Config:
  27              	.LFB131:
  28              		.file 1 "Core/Src/main.c"
   1:Core/Src/main.c **** /* USER CODE BEGIN Header */
   2:Core/Src/main.c **** /**
   3:Core/Src/main.c ****   ******************************************************************************
   4:Core/Src/main.c ****   * @file           : main.c
   5:Core/Src/main.c ****   * @brief          : Main program body
   6:Core/Src/main.c ****   ******************************************************************************
   7:Core/Src/main.c ****   * @attention
   8:Core/Src/main.c ****   *
   9:Core/Src/main.c ****   * <h2><center>&copy; Copyright (c) 2022 STMicroelectronics.
  10:Core/Src/main.c ****   * All rights reserved.</center></h2>
  11:Core/Src/main.c ****   *
  12:Core/Src/main.c ****   * This software component is licensed by ST under BSD 3-Clause license,
  13:Core/Src/main.c ****   * the "License"; You may not use this file except in compliance with the
  14:Core/Src/main.c ****   * License. You may obtain a copy of the License at:
  15:Core/Src/main.c ****   *                        opensource.org/licenses/BSD-3-Clause
  16:Core/Src/main.c ****   *
  17:Core/Src/main.c ****   ******************************************************************************
  18:Core/Src/main.c ****   */
  19:Core/Src/main.c **** /* USER CODE END Header */
  20:Core/Src/main.c **** /* Includes ------------------------------------------------------------------*/
  21:Core/Src/main.c **** #include "main.h"
  22:Core/Src/main.c **** #include "tim.h"
  23:Core/Src/main.c **** #include "gpio.h"
  24:Core/Src/main.c **** 
  25:Core/Src/main.c **** /* Private includes ----------------------------------------------------------*/
  26:Core/Src/main.c **** /* USER CODE BEGIN Includes */
  27:Core/Src/main.c **** 
  28:Core/Src/main.c **** /* USER CODE END Includes */
  29:Core/Src/main.c **** 
  30:Core/Src/main.c **** /* Private typedef -----------------------------------------------------------*/
ARM GAS  C:\Users\MSI-NB\AppData\Local\Temp\cckFucAn.s 			page 2


  31:Core/Src/main.c **** /* USER CODE BEGIN PTD */
  32:Core/Src/main.c **** 
  33:Core/Src/main.c **** /* USER CODE END PTD */
  34:Core/Src/main.c **** 
  35:Core/Src/main.c **** /* Private define ------------------------------------------------------------*/
  36:Core/Src/main.c **** /* USER CODE BEGIN PD */
  37:Core/Src/main.c **** /* USER CODE END PD */
  38:Core/Src/main.c **** 
  39:Core/Src/main.c **** /* Private macro -------------------------------------------------------------*/
  40:Core/Src/main.c **** /* USER CODE BEGIN PM */
  41:Core/Src/main.c **** 
  42:Core/Src/main.c **** /* USER CODE END PM */
  43:Core/Src/main.c **** 
  44:Core/Src/main.c **** /* Private variables ---------------------------------------------------------*/
  45:Core/Src/main.c **** 
  46:Core/Src/main.c **** /* USER CODE BEGIN PV */
  47:Core/Src/main.c **** 
  48:Core/Src/main.c **** /* USER CODE END PV */
  49:Core/Src/main.c **** 
  50:Core/Src/main.c **** /* Private function prototypes -----------------------------------------------*/
  51:Core/Src/main.c **** void SystemClock_Config(void);
  52:Core/Src/main.c **** /* USER CODE BEGIN PFP */
  53:Core/Src/main.c **** 
  54:Core/Src/main.c **** /* USER CODE END PFP */
  55:Core/Src/main.c **** 
  56:Core/Src/main.c **** /* Private user code ---------------------------------------------------------*/
  57:Core/Src/main.c **** /* USER CODE BEGIN 0 */
  58:Core/Src/main.c **** 
  59:Core/Src/main.c **** /* USER CODE END 0 */
  60:Core/Src/main.c **** 
  61:Core/Src/main.c **** /**
  62:Core/Src/main.c ****   * @brief  The application entry point.
  63:Core/Src/main.c ****   * @retval int
  64:Core/Src/main.c ****   */
  65:Core/Src/main.c **** int main(void)
  66:Core/Src/main.c **** {
  67:Core/Src/main.c ****   /* USER CODE BEGIN 1 */
  68:Core/Src/main.c **** 
  69:Core/Src/main.c ****   /* USER CODE END 1 */
  70:Core/Src/main.c **** 
  71:Core/Src/main.c ****   /* MCU Configuration--------------------------------------------------------*/
  72:Core/Src/main.c **** 
  73:Core/Src/main.c ****   /* Reset of all peripherals, Initializes the Flash interface and the Systick. */
  74:Core/Src/main.c ****   HAL_Init();
  75:Core/Src/main.c **** 
  76:Core/Src/main.c ****   /* USER CODE BEGIN Init */
  77:Core/Src/main.c **** 
  78:Core/Src/main.c ****   /* USER CODE END Init */
  79:Core/Src/main.c **** 
  80:Core/Src/main.c ****   /* Configure the system clock */
  81:Core/Src/main.c ****   SystemClock_Config();
  82:Core/Src/main.c **** 
  83:Core/Src/main.c ****   /* USER CODE BEGIN SysInit */
  84:Core/Src/main.c **** 
  85:Core/Src/main.c ****   /* USER CODE END SysInit */
  86:Core/Src/main.c **** 
  87:Core/Src/main.c ****   /* Initialize all configured peripherals */
ARM GAS  C:\Users\MSI-NB\AppData\Local\Temp\cckFucAn.s 			page 3


  88:Core/Src/main.c ****   MX_GPIO_Init();
  89:Core/Src/main.c ****   MX_TIM1_Init();
  90:Core/Src/main.c ****   /* USER CODE BEGIN 2 */
  91:Core/Src/main.c ****   __HAL_TIM_SET_COMPARE(&htim1, TIM_CHANNEL_1, 12000);
  92:Core/Src/main.c ****   // 22000 触发调参
  93:Core/Src/main.c ****   HAL_TIM_PWM_Start(&htim1, TIM_CHANNEL_1);
  94:Core/Src/main.c ****   /* USER CODE END 2 */
  95:Core/Src/main.c **** 
  96:Core/Src/main.c ****   /* Infinite loop */
  97:Core/Src/main.c ****   /* USER CODE BEGIN WHILE */
  98:Core/Src/main.c ****   while (1)
  99:Core/Src/main.c ****   {
 100:Core/Src/main.c ****     /* USER CODE END WHILE */
 101:Core/Src/main.c **** 
 102:Core/Src/main.c ****     /* USER CODE BEGIN 3 */
 103:Core/Src/main.c ****     if(HAL_GPIO_ReadPin(Button_GPIO_Port, Button_Pin) == GPIO_PIN_SET)
 104:Core/Src/main.c ****     {
 105:Core/Src/main.c ****       HAL_GPIO_WritePin(LED_GPIO_Port, LED_Pin, GPIO_PIN_SET);
 106:Core/Src/main.c ****     }
 107:Core/Src/main.c ****     else
 108:Core/Src/main.c ****     {
 109:Core/Src/main.c ****       HAL_GPIO_WritePin(LED_GPIO_Port, LED_Pin, GPIO_PIN_RESET);
 110:Core/Src/main.c ****     }
 111:Core/Src/main.c ****     HAL_Delay(2);
 112:Core/Src/main.c ****   }
 113:Core/Src/main.c ****   /* USER CODE END 3 */
 114:Core/Src/main.c **** }
 115:Core/Src/main.c **** 
 116:Core/Src/main.c **** /**
 117:Core/Src/main.c ****   * @brief System Clock Configuration
 118:Core/Src/main.c ****   * @retval None
 119:Core/Src/main.c ****   */
 120:Core/Src/main.c **** void SystemClock_Config(void)
 121:Core/Src/main.c **** {
  29              		.loc 1 121 1 view -0
  30              		.cfi_startproc
  31              		@ args = 0, pretend = 0, frame = 80
  32              		@ frame_needed = 0, uses_anonymous_args = 0
  33 0000 30B5     		push	{r4, r5, lr}
  34              	.LCFI0:
  35              		.cfi_def_cfa_offset 12
  36              		.cfi_offset 4, -12
  37              		.cfi_offset 5, -8
  38              		.cfi_offset 14, -4
  39 0002 95B0     		sub	sp, sp, #84
  40              	.LCFI1:
  41              		.cfi_def_cfa_offset 96
 122:Core/Src/main.c ****   RCC_OscInitTypeDef RCC_OscInitStruct = {0};
  42              		.loc 1 122 3 view .LVU1
  43              		.loc 1 122 22 is_stmt 0 view .LVU2
  44 0004 3022     		movs	r2, #48
  45 0006 0021     		movs	r1, #0
  46 0008 08A8     		add	r0, sp, #32
  47 000a FFF7FEFF 		bl	memset
  48              	.LVL0:
 123:Core/Src/main.c ****   RCC_ClkInitTypeDef RCC_ClkInitStruct = {0};
  49              		.loc 1 123 3 is_stmt 1 view .LVU3
ARM GAS  C:\Users\MSI-NB\AppData\Local\Temp\cckFucAn.s 			page 4


  50              		.loc 1 123 22 is_stmt 0 view .LVU4
  51 000e 0024     		movs	r4, #0
  52 0010 0394     		str	r4, [sp, #12]
  53 0012 0494     		str	r4, [sp, #16]
  54 0014 0594     		str	r4, [sp, #20]
  55 0016 0694     		str	r4, [sp, #24]
  56 0018 0794     		str	r4, [sp, #28]
 124:Core/Src/main.c **** 
 125:Core/Src/main.c ****   /** Configure the main internal regulator output voltage
 126:Core/Src/main.c ****   */
 127:Core/Src/main.c ****   __HAL_RCC_PWR_CLK_ENABLE();
  57              		.loc 1 127 3 is_stmt 1 view .LVU5
  58              	.LBB2:
  59              		.loc 1 127 3 view .LVU6
  60 001a 0194     		str	r4, [sp, #4]
  61              		.loc 1 127 3 view .LVU7
  62 001c 1B4B     		ldr	r3, .L3
  63 001e 1A6C     		ldr	r2, [r3, #64]
  64 0020 42F08052 		orr	r2, r2, #268435456
  65 0024 1A64     		str	r2, [r3, #64]
  66              		.loc 1 127 3 view .LVU8
  67 0026 1B6C     		ldr	r3, [r3, #64]
  68 0028 03F08053 		and	r3, r3, #268435456
  69 002c 0193     		str	r3, [sp, #4]
  70              		.loc 1 127 3 view .LVU9
  71 002e 019B     		ldr	r3, [sp, #4]
  72              	.LBE2:
 128:Core/Src/main.c ****   __HAL_PWR_VOLTAGESCALING_CONFIG(PWR_REGULATOR_VOLTAGE_SCALE1);
  73              		.loc 1 128 3 view .LVU10
  74              	.LBB3:
  75              		.loc 1 128 3 view .LVU11
  76 0030 0294     		str	r4, [sp, #8]
  77              		.loc 1 128 3 view .LVU12
  78 0032 174B     		ldr	r3, .L3+4
  79 0034 1A68     		ldr	r2, [r3]
  80 0036 42F44042 		orr	r2, r2, #49152
  81 003a 1A60     		str	r2, [r3]
  82              		.loc 1 128 3 view .LVU13
  83 003c 1B68     		ldr	r3, [r3]
  84 003e 03F44043 		and	r3, r3, #49152
  85 0042 0293     		str	r3, [sp, #8]
  86              		.loc 1 128 3 view .LVU14
  87 0044 029B     		ldr	r3, [sp, #8]
  88              	.LBE3:
 129:Core/Src/main.c ****   /** Initializes the RCC Oscillators according to the specified parameters
 130:Core/Src/main.c ****   * in the RCC_OscInitTypeDef structure.
 131:Core/Src/main.c ****   */
 132:Core/Src/main.c ****   RCC_OscInitStruct.OscillatorType = RCC_OSCILLATORTYPE_HSE;
  89              		.loc 1 132 3 view .LVU15
  90              		.loc 1 132 36 is_stmt 0 view .LVU16
  91 0046 0123     		movs	r3, #1
  92 0048 0893     		str	r3, [sp, #32]
 133:Core/Src/main.c ****   RCC_OscInitStruct.HSEState = RCC_HSE_ON;
  93              		.loc 1 133 3 is_stmt 1 view .LVU17
  94              		.loc 1 133 30 is_stmt 0 view .LVU18
  95 004a 4FF48033 		mov	r3, #65536
  96 004e 0993     		str	r3, [sp, #36]
ARM GAS  C:\Users\MSI-NB\AppData\Local\Temp\cckFucAn.s 			page 5


 134:Core/Src/main.c ****   RCC_OscInitStruct.PLL.PLLState = RCC_PLL_ON;
  97              		.loc 1 134 3 is_stmt 1 view .LVU19
  98              		.loc 1 134 34 is_stmt 0 view .LVU20
  99 0050 0225     		movs	r5, #2
 100 0052 0E95     		str	r5, [sp, #56]
 135:Core/Src/main.c ****   RCC_OscInitStruct.PLL.PLLSource = RCC_PLLSOURCE_HSE;
 101              		.loc 1 135 3 is_stmt 1 view .LVU21
 102              		.loc 1 135 35 is_stmt 0 view .LVU22
 103 0054 4FF48003 		mov	r3, #4194304
 104 0058 0F93     		str	r3, [sp, #60]
 136:Core/Src/main.c ****   RCC_OscInitStruct.PLL.PLLM = 25;
 105              		.loc 1 136 3 is_stmt 1 view .LVU23
 106              		.loc 1 136 30 is_stmt 0 view .LVU24
 107 005a 1923     		movs	r3, #25
 108 005c 1093     		str	r3, [sp, #64]
 137:Core/Src/main.c ****   RCC_OscInitStruct.PLL.PLLN = 200;
 109              		.loc 1 137 3 is_stmt 1 view .LVU25
 110              		.loc 1 137 30 is_stmt 0 view .LVU26
 111 005e C823     		movs	r3, #200
 112 0060 1193     		str	r3, [sp, #68]
 138:Core/Src/main.c ****   RCC_OscInitStruct.PLL.PLLP = RCC_PLLP_DIV2;
 113              		.loc 1 138 3 is_stmt 1 view .LVU27
 114              		.loc 1 138 30 is_stmt 0 view .LVU28
 115 0062 1295     		str	r5, [sp, #72]
 139:Core/Src/main.c ****   RCC_OscInitStruct.PLL.PLLQ = 4;
 116              		.loc 1 139 3 is_stmt 1 view .LVU29
 117              		.loc 1 139 30 is_stmt 0 view .LVU30
 118 0064 0423     		movs	r3, #4
 119 0066 1393     		str	r3, [sp, #76]
 140:Core/Src/main.c ****   if (HAL_RCC_OscConfig(&RCC_OscInitStruct) != HAL_OK)
 120              		.loc 1 140 3 is_stmt 1 view .LVU31
 121              		.loc 1 140 7 is_stmt 0 view .LVU32
 122 0068 08A8     		add	r0, sp, #32
 123 006a FFF7FEFF 		bl	HAL_RCC_OscConfig
 124              	.LVL1:
 141:Core/Src/main.c ****   {
 142:Core/Src/main.c ****     Error_Handler();
 143:Core/Src/main.c ****   }
 144:Core/Src/main.c ****   /** Initializes the CPU, AHB and APB buses clocks
 145:Core/Src/main.c ****   */
 146:Core/Src/main.c ****   RCC_ClkInitStruct.ClockType = RCC_CLOCKTYPE_HCLK|RCC_CLOCKTYPE_SYSCLK
 125              		.loc 1 146 3 is_stmt 1 view .LVU33
 126              		.loc 1 146 31 is_stmt 0 view .LVU34
 127 006e 0F23     		movs	r3, #15
 128 0070 0393     		str	r3, [sp, #12]
 147:Core/Src/main.c ****                               |RCC_CLOCKTYPE_PCLK1|RCC_CLOCKTYPE_PCLK2;
 148:Core/Src/main.c ****   RCC_ClkInitStruct.SYSCLKSource = RCC_SYSCLKSOURCE_PLLCLK;
 129              		.loc 1 148 3 is_stmt 1 view .LVU35
 130              		.loc 1 148 34 is_stmt 0 view .LVU36
 131 0072 0495     		str	r5, [sp, #16]
 149:Core/Src/main.c ****   RCC_ClkInitStruct.AHBCLKDivider = RCC_SYSCLK_DIV1;
 132              		.loc 1 149 3 is_stmt 1 view .LVU37
 133              		.loc 1 149 35 is_stmt 0 view .LVU38
 134 0074 0594     		str	r4, [sp, #20]
 150:Core/Src/main.c ****   RCC_ClkInitStruct.APB1CLKDivider = RCC_HCLK_DIV2;
 135              		.loc 1 150 3 is_stmt 1 view .LVU39
 136              		.loc 1 150 36 is_stmt 0 view .LVU40
ARM GAS  C:\Users\MSI-NB\AppData\Local\Temp\cckFucAn.s 			page 6


 137 0076 4FF48053 		mov	r3, #4096
 138 007a 0693     		str	r3, [sp, #24]
 151:Core/Src/main.c ****   RCC_ClkInitStruct.APB2CLKDivider = RCC_HCLK_DIV1;
 139              		.loc 1 151 3 is_stmt 1 view .LVU41
 140              		.loc 1 151 36 is_stmt 0 view .LVU42
 141 007c 0794     		str	r4, [sp, #28]
 152:Core/Src/main.c **** 
 153:Core/Src/main.c ****   if (HAL_RCC_ClockConfig(&RCC_ClkInitStruct, FLASH_LATENCY_3) != HAL_OK)
 142              		.loc 1 153 3 is_stmt 1 view .LVU43
 143              		.loc 1 153 7 is_stmt 0 view .LVU44
 144 007e 0321     		movs	r1, #3
 145 0080 03A8     		add	r0, sp, #12
 146 0082 FFF7FEFF 		bl	HAL_RCC_ClockConfig
 147              	.LVL2:
 154:Core/Src/main.c ****   {
 155:Core/Src/main.c ****     Error_Handler();
 156:Core/Src/main.c ****   }
 157:Core/Src/main.c **** }
 148              		.loc 1 157 1 view .LVU45
 149 0086 15B0     		add	sp, sp, #84
 150              	.LCFI2:
 151              		.cfi_def_cfa_offset 12
 152              		@ sp needed
 153 0088 30BD     		pop	{r4, r5, pc}
 154              	.L4:
 155 008a 00BF     		.align	2
 156              	.L3:
 157 008c 00380240 		.word	1073887232
 158 0090 00700040 		.word	1073770496
 159              		.cfi_endproc
 160              	.LFE131:
 162              		.section	.text.main,"ax",%progbits
 163              		.align	1
 164              		.global	main
 165              		.syntax unified
 166              		.thumb
 167              		.thumb_func
 168              		.fpu fpv4-sp-d16
 170              	main:
 171              	.LFB130:
  66:Core/Src/main.c ****   /* USER CODE BEGIN 1 */
 172              		.loc 1 66 1 is_stmt 1 view -0
 173              		.cfi_startproc
 174              		@ Volatile: function does not return.
 175              		@ args = 0, pretend = 0, frame = 0
 176              		@ frame_needed = 0, uses_anonymous_args = 0
 177 0000 08B5     		push	{r3, lr}
 178              	.LCFI3:
 179              		.cfi_def_cfa_offset 8
 180              		.cfi_offset 3, -8
 181              		.cfi_offset 14, -4
  74:Core/Src/main.c **** 
 182              		.loc 1 74 3 view .LVU47
 183 0002 FFF7FEFF 		bl	HAL_Init
 184              	.LVL3:
  81:Core/Src/main.c **** 
 185              		.loc 1 81 3 view .LVU48
ARM GAS  C:\Users\MSI-NB\AppData\Local\Temp\cckFucAn.s 			page 7


 186 0006 FFF7FEFF 		bl	SystemClock_Config
 187              	.LVL4:
  88:Core/Src/main.c ****   MX_TIM1_Init();
 188              		.loc 1 88 3 view .LVU49
 189 000a FFF7FEFF 		bl	MX_GPIO_Init
 190              	.LVL5:
  89:Core/Src/main.c ****   /* USER CODE BEGIN 2 */
 191              		.loc 1 89 3 view .LVU50
 192 000e FFF7FEFF 		bl	MX_TIM1_Init
 193              	.LVL6:
  91:Core/Src/main.c ****   // 22000 触发调参
 194              		.loc 1 91 3 view .LVU51
 195 0012 0F48     		ldr	r0, .L10
 196 0014 0368     		ldr	r3, [r0]
 197 0016 42F6E062 		movw	r2, #12000
 198 001a 5A63     		str	r2, [r3, #52]
  93:Core/Src/main.c ****   /* USER CODE END 2 */
 199              		.loc 1 93 3 view .LVU52
 200 001c 0021     		movs	r1, #0
 201 001e FFF7FEFF 		bl	HAL_TIM_PWM_Start
 202              	.LVL7:
 203 0022 08E0     		b	.L8
 204              	.L6:
 109:Core/Src/main.c ****     }
 205              		.loc 1 109 7 view .LVU53
 206 0024 0022     		movs	r2, #0
 207 0026 4FF40051 		mov	r1, #8192
 208 002a 0A48     		ldr	r0, .L10+4
 209 002c FFF7FEFF 		bl	HAL_GPIO_WritePin
 210              	.LVL8:
 211              	.L7:
 111:Core/Src/main.c ****   }
 212              		.loc 1 111 5 view .LVU54
 213 0030 0220     		movs	r0, #2
 214 0032 FFF7FEFF 		bl	HAL_Delay
 215              	.LVL9:
 216              	.L8:
  98:Core/Src/main.c ****   {
 217              		.loc 1 98 3 view .LVU55
 103:Core/Src/main.c ****     {
 218              		.loc 1 103 5 view .LVU56
 103:Core/Src/main.c ****     {
 219              		.loc 1 103 8 is_stmt 0 view .LVU57
 220 0036 0121     		movs	r1, #1
 221 0038 0748     		ldr	r0, .L10+8
 222 003a FFF7FEFF 		bl	HAL_GPIO_ReadPin
 223              	.LVL10:
 103:Core/Src/main.c ****     {
 224              		.loc 1 103 7 view .LVU58
 225 003e 0128     		cmp	r0, #1
 226 0040 F0D1     		bne	.L6
 105:Core/Src/main.c ****     }
 227              		.loc 1 105 7 is_stmt 1 view .LVU59
 228 0042 0122     		movs	r2, #1
 229 0044 4FF40051 		mov	r1, #8192
 230 0048 0248     		ldr	r0, .L10+4
 231 004a FFF7FEFF 		bl	HAL_GPIO_WritePin
ARM GAS  C:\Users\MSI-NB\AppData\Local\Temp\cckFucAn.s 			page 8


 232              	.LVL11:
 233 004e EFE7     		b	.L7
 234              	.L11:
 235              		.align	2
 236              	.L10:
 237 0050 00000000 		.word	htim1
 238 0054 00080240 		.word	1073874944
 239 0058 00000240 		.word	1073872896
 240              		.cfi_endproc
 241              	.LFE130:
 243              		.section	.text.Error_Handler,"ax",%progbits
 244              		.align	1
 245              		.global	Error_Handler
 246              		.syntax unified
 247              		.thumb
 248              		.thumb_func
 249              		.fpu fpv4-sp-d16
 251              	Error_Handler:
 252              	.LFB132:
 158:Core/Src/main.c **** 
 159:Core/Src/main.c **** /* USER CODE BEGIN 4 */
 160:Core/Src/main.c **** 
 161:Core/Src/main.c **** /* USER CODE END 4 */
 162:Core/Src/main.c **** 
 163:Core/Src/main.c **** /**
 164:Core/Src/main.c ****   * @brief  This function is executed in case of error occurrence.
 165:Core/Src/main.c ****   * @retval None
 166:Core/Src/main.c ****   */
 167:Core/Src/main.c **** void Error_Handler(void)
 168:Core/Src/main.c **** {
 253              		.loc 1 168 1 view -0
 254              		.cfi_startproc
 255              		@ args = 0, pretend = 0, frame = 0
 256              		@ frame_needed = 0, uses_anonymous_args = 0
 257              		@ link register save eliminated.
 169:Core/Src/main.c ****   /* USER CODE BEGIN Error_Handler_Debug */
 170:Core/Src/main.c ****   /* User can add his own implementation to report the HAL error return state */
 171:Core/Src/main.c **** 
 172:Core/Src/main.c ****   /* USER CODE END Error_Handler_Debug */
 173:Core/Src/main.c **** }
 258              		.loc 1 173 1 view .LVU61
 259 0000 7047     		bx	lr
 260              		.cfi_endproc
 261              	.LFE132:
 263              		.text
 264              	.Letext0:
 265              		.file 2 "c:\\program files (x86)\\gnu tools arm embedded\\8 2019-q3-update\\arm-none-eabi\\include
 266              		.file 3 "c:\\program files (x86)\\gnu tools arm embedded\\8 2019-q3-update\\arm-none-eabi\\include
 267              		.file 4 "Drivers/CMSIS/Include/core_cm4.h"
 268              		.file 5 "Drivers/CMSIS/Device/ST/STM32F4xx/Include/system_stm32f4xx.h"
 269              		.file 6 "Drivers/CMSIS/Device/ST/STM32F4xx/Include/stm32f411xe.h"
 270              		.file 7 "Drivers/STM32F4xx_HAL_Driver/Inc/stm32f4xx_hal_def.h"
 271              		.file 8 "Drivers/STM32F4xx_HAL_Driver/Inc/stm32f4xx_hal_rcc_ex.h"
 272              		.file 9 "Drivers/STM32F4xx_HAL_Driver/Inc/stm32f4xx_hal_rcc.h"
 273              		.file 10 "Drivers/STM32F4xx_HAL_Driver/Inc/stm32f4xx_hal_gpio.h"
 274              		.file 11 "Drivers/STM32F4xx_HAL_Driver/Inc/stm32f4xx_hal_dma.h"
 275              		.file 12 "Drivers/STM32F4xx_HAL_Driver/Inc/stm32f4xx_hal_tim.h"
ARM GAS  C:\Users\MSI-NB\AppData\Local\Temp\cckFucAn.s 			page 9


 276              		.file 13 "Drivers/STM32F4xx_HAL_Driver/Inc/stm32f4xx_hal.h"
 277              		.file 14 "Core/Inc/tim.h"
 278              		.file 15 "Core/Inc/gpio.h"
 279              		.file 16 "<built-in>"
ARM GAS  C:\Users\MSI-NB\AppData\Local\Temp\cckFucAn.s 			page 10

